target datalayout = "e-m:e-p270:32:32-p271:32:32-p272:64:64-i64:64-i128:128-f80:128-n8:16:32:64-S128"
target triple = "x86_64-pc-linux-gnu"

%struct.ident_t = type { i32, i32, i32, i32, ptr }
%class.TreeNodeData = type <{ i32, i8, [3 x i8] }>
%class.OctNode = type { i64, ptr, ptr, %class.TreeNodeData }
%"struct.std::_Vector_base.19" = type { %"struct.std::_Vector_base<int, std::allocator<int>>::_Vector_impl" }
%"struct.std::_Vector_base<int, std::allocator<int>>::_Vector_impl" = type { %"struct.std::_Vector_base<int, std::allocator<int>>::_Vector_impl_data" }
%"struct.std::_Vector_base<int, std::allocator<int>>::_Vector_impl_data" = type { ptr, ptr, ptr }
%struct.Point3D = type { [3 x float] }
%struct.OrientedPoint3D = type { %struct.Point3D, %struct.Point3D }
%struct.ProjectiveData = type { %struct.OrientedPoint3D, float }
%"struct.Octree<float>::PointSample" = type <{ ptr, %struct.ProjectiveData, [4 x i8] }>
%"struct.std::_Vector_base.297" = type { %"struct.std::_Vector_base<Octree<float>::PointSample, std::allocator<Octree<float>::PointSample>>::_Vector_impl" }
%"struct.std::_Vector_base<Octree<float>::PointSample, std::allocator<Octree<float>::PointSample>>::_Vector_impl" = type { %"struct.std::_Vector_base<Octree<float>::PointSample, std::allocator<Octree<float>::PointSample>>::_Vector_impl_data" }
%"struct.std::_Vector_base<Octree<float>::PointSample, std::allocator<Octree<float>::PointSample>>::_Vector_impl_data" = type { ptr, ptr, ptr }

@1 = private unnamed_addr constant %struct.ident_t { i32 0, i32 514, i32 0, i32 22, ptr @0 }, align 8

; Function Attrs: mustprogress nounwind uwtable
define linkonce_odr noundef nonnull align 4 dereferenceable(4) ptr @_ZNSt6vectorIiSaIiEEixEm(ptr noundef nonnull align 8 dereferenceable(24) %0, i64 noundef %1) #4 comdat align 2 {
  %3 = alloca ptr, align 8
  %4 = alloca i64, align 8
  store ptr %0, ptr %3, align 8
  store i64 %1, ptr %4, align 8
  %5 = load ptr, ptr %3, align 8
  %6 = getelementptr inbounds %"struct.std::_Vector_base.19", ptr %5, i32 0, i32 0
  %7 = getelementptr inbounds %"struct.std::_Vector_base<int, std::allocator<int>>::_Vector_impl_data", ptr %6, i32 0, i32 0
  %8 = load ptr, ptr %7, align 8
  %9 = load i64, ptr %4, align 8
  %10 = getelementptr inbounds i32, ptr %8, i64 %9
  ret ptr %10
}

; Function Attrs: mustprogress nounwind uwtable
define linkonce_odr noundef nonnull align 8 dereferenceable(36) ptr @_ZNKSt6vectorIN6OctreeIfE11PointSampleESaIS2_EEixEm(ptr noundef nonnull align 8 dereferenceable(24) %0, i64 noundef %1) #4 comdat align 2 {
  %3 = alloca ptr, align 8
  %4 = alloca i64, align 8
  store ptr %0, ptr %3, align 8
  store i64 %1, ptr %4, align 8
  %5 = load ptr, ptr %3, align 8
  %6 = getelementptr inbounds %"struct.std::_Vector_base.297", ptr %5, i32 0, i32 0
  %7 = getelementptr inbounds %"struct.std::_Vector_base<Octree<float>::PointSample, std::allocator<Octree<float>::PointSample>>::_Vector_impl_data", ptr %6, i32 0, i32 0
  %8 = load ptr, ptr %7, align 8
  %9 = load i64, ptr %4, align 8
  %10 = getelementptr inbounds %"struct.Octree<float>::PointSample", ptr %8, i64 %9
  ret ptr %10
}

; Function Attrs: mustprogress nounwind uwtable
define linkonce_odr noundef i64 @_ZNKSt6vectorIN6OctreeIfE11PointSampleESaIS2_EE4sizeEv(ptr noundef nonnull align 8 dereferenceable(24) %0) #4 comdat align 2 {
  %2 = alloca ptr, align 8
  store ptr %0, ptr %2, align 8
  %3 = load ptr, ptr %2, align 8
  %4 = getelementptr inbounds %"struct.std::_Vector_base.297", ptr %3, i32 0, i32 0
  %5 = getelementptr inbounds %"struct.std::_Vector_base<Octree<float>::PointSample, std::allocator<Octree<float>::PointSample>>::_Vector_impl_data", ptr %4, i32 0, i32 1
  %6 = load ptr, ptr %5, align 8
  %7 = getelementptr inbounds %"struct.std::_Vector_base.297", ptr %3, i32 0, i32 0
  %8 = getelementptr inbounds %"struct.std::_Vector_base<Octree<float>::PointSample, std::allocator<Octree<float>::PointSample>>::_Vector_impl_data", ptr %7, i32 0, i32 0
  %9 = load ptr, ptr %8, align 8
  %10 = ptrtoint ptr %6 to i64
  %11 = ptrtoint ptr %9 to i64
  %12 = sub i64 %10, %11
  %13 = sdiv exact i64 %12, 40
  ret i64 %13
}

; Function Attrs: norecurse nounwind uwtable
define internal void @_ZN6OctreeIfE19setDensityEstimatorILi2EEEPNS0_16DensityEstimatorIXT_EEERKSt6vectorINS0_11PointSampleESaIS6_EEif.omp_outlined(ptr noalias noundef %0, ptr noalias noundef %1, ptr noundef nonnull align 8 dereferenceable(24) %2, ptr noundef nonnull align 8 dereferenceable(24) %3) #17 {
  %5 = alloca ptr, align 8
  %6 = alloca ptr, align 8
  %7 = alloca ptr, align 8
  %8 = alloca ptr, align 8
  %9 = alloca ptr, align 8
  %10 = alloca i32, align 4
  %11 = alloca i32, align 4
  %12 = alloca i32, align 4
  %13 = alloca i32, align 4
  %14 = alloca i32, align 4
  %15 = alloca i32, align 4
  %16 = alloca i32, align 4
  %17 = alloca i32, align 4
  %18 = alloca i32, align 4
  store ptr %0, ptr %5, align 8
  store ptr %1, ptr %6, align 8
  store ptr %2, ptr %7, align 8
  store ptr %3, ptr %8, align 8
  %19 = load ptr, ptr %7, align 8
  %20 = load ptr, ptr %8, align 8
  store ptr %19, ptr %9, align 8
  %21 = load ptr, ptr %9, align 8
  %22 = call noundef i64 @_ZNKSt6vectorIN6OctreeIfE11PointSampleESaIS2_EE4sizeEv(ptr noundef nonnull align 8 dereferenceable(24) %21) #3
  %23 = trunc i64 %22 to i32
  store i32 %23, ptr %11, align 4
  %24 = load i32, ptr %11, align 4
  %25 = sub nsw i32 %24, 0
  %26 = sdiv i32 %25, 1
  %27 = sub nsw i32 %26, 1
  store i32 %27, ptr %12, align 4
  store i32 0, ptr %13, align 4
  %28 = load i32, ptr %11, align 4
  %29 = icmp slt i32 0, %28
  br i1 %29, label %30, label %82

30:                                               ; preds = %4
  store i32 0, ptr %14, align 4
  %31 = load i32, ptr %12, align 4
  store i32 %31, ptr %15, align 4
  store i32 1, ptr %16, align 4
  store i32 0, ptr %17, align 4
  %32 = load ptr, ptr %5, align 8
  %33 = load i32, ptr %32, align 4
  call void @__kmpc_for_static_init_4(ptr @1, i32 %33, i32 34, ptr %17, ptr %14, ptr %15, ptr %16, i32 1, i32 1)
  %34 = load i32, ptr %15, align 4
  %35 = load i32, ptr %12, align 4
  %36 = icmp sgt i32 %34, %35
  br i1 %36, label %37, label %39

37:                                               ; preds = %30
  %38 = load i32, ptr %12, align 4
  br label %41

39:                                               ; preds = %30
  %40 = load i32, ptr %15, align 4
  br label %41

41:                                               ; preds = %39, %37
  %42 = phi i32 [ %38, %37 ], [ %40, %39 ]
  store i32 %42, ptr %15, align 4
  %43 = load i32, ptr %14, align 4
  store i32 %43, ptr %10, align 4
  br label %44

44:                                               ; preds = %75, %41
  %45 = load i32, ptr %10, align 4
  %46 = load i32, ptr %15, align 4
  %47 = icmp sle i32 %45, %46
  br i1 %47, label %48, label %78

48:                                               ; preds = %44
  %49 = load i32, ptr %10, align 4
  %50 = mul nsw i32 %49, 1
  %51 = add nsw i32 0, %50
  store i32 %51, ptr %18, align 4
  %52 = load ptr, ptr %9, align 8
  %53 = load i32, ptr %18, align 4
  %54 = sext i32 %53 to i64
  %55 = call noundef nonnull align 8 dereferenceable(36) ptr @_ZNKSt6vectorIN6OctreeIfE11PointSampleESaIS2_EEixEm(ptr noundef nonnull align 8 dereferenceable(24) %52, i64 noundef %54) #3
  %56 = getelementptr inbounds %"struct.Octree<float>::PointSample", ptr %55, i32 0, i32 1
  %57 = getelementptr inbounds %struct.ProjectiveData, ptr %56, i32 0, i32 1
  %58 = load float, ptr %57, align 8
  %59 = fcmp ogt float %58, 0.000000e+00
  br i1 %59, label %60, label %73

60:                                               ; preds = %48
  %61 = load i32, ptr %18, align 4
  %62 = load ptr, ptr %9, align 8
  %63 = load i32, ptr %18, align 4
  %64 = sext i32 %63 to i64
  %65 = call noundef nonnull align 8 dereferenceable(36) ptr @_ZNKSt6vectorIN6OctreeIfE11PointSampleESaIS2_EEixEm(ptr noundef nonnull align 8 dereferenceable(24) %62, i64 noundef %64) #3
  %66 = getelementptr inbounds %"struct.Octree<float>::PointSample", ptr %65, i32 0, i32 0
  %67 = load ptr, ptr %66, align 8
  %68 = getelementptr inbounds %class.OctNode, ptr %67, i32 0, i32 3
  %69 = getelementptr inbounds %class.TreeNodeData, ptr %68, i32 0, i32 0
  %70 = load i32, ptr %69, align 8
  %71 = sext i32 %70 to i64
  %72 = call noundef nonnull align 4 dereferenceable(4) ptr @_ZNSt6vectorIiSaIiEEixEm(ptr noundef nonnull align 8 dereferenceable(24) %20, i64 noundef %71) #3
  store i32 %61, ptr %72, align 4
  br label %73

73:                                               ; preds = %60, %48
  br label %74

74:                                               ; preds = %73
  br label %75

75:                                               ; preds = %74
  %76 = load i32, ptr %10, align 4
  %77 = add nsw i32 %76, 1
  store i32 %77, ptr %10, align 4
  br label %44

78:                                               ; preds = %44
  br label %79

79:                                               ; preds = %78
  %80 = load ptr, ptr %5, align 8
  %81 = load i32, ptr %80, align 4
  call void @__kmpc_for_static_fini(ptr @1, i32 %81)
  br label %82

82:                                               ; preds = %79, %4
  ret void
}