; Function Attrs: norecurse nounwind uwtable
define internal void @_ZN6OctreeIfE19setDensityEstimatorILi2EEEPNS0_16DensityEstimatorIXT_EEERKSt6vectorINS0_11PointSampleESaIS6_EEif.omp_outlined(ptr noalias nocapture noundef readonly %0, ptr noalias nocapture readnone %1, ptr nocapture noundef nonnull readonly align 8 dereferenceable(24) %2, ptr nocapture noundef nonnull readonly align 8 dereferenceable(24) %3) #23 {
  %5 = alloca i32, align 4
  %6 = alloca i32, align 4
  %7 = alloca i32, align 4
  %8 = alloca i32, align 4
  %9 = getelementptr inbounds i8, ptr %2, i64 8
  %10 = load ptr, ptr %9, align 8
  %11 = load ptr, ptr %2, align 8
  %12 = ptrtoint ptr %10 to i64
  %13 = ptrtoint ptr %11 to i64
  %14 = sub i64 %12, %13
  %15 = sdiv exact i64 %14, 40
  %16 = trunc i64 %15 to i32
  %17 = icmp sgt i32 %16, 0
  br i1 %17, label %18, label %42

18:                                               ; preds = %4
  %19 = add nsw i32 %16, -1
  store i32 0, ptr %5, align 4
  store i32 %19, ptr %6, align 4
  store i32 1, ptr %7, align 4
  store i32 0, ptr %8, align 4
  %20 = load i32, ptr %0, align 4
  call void @__kmpc_for_static_init_4(ptr nonnull @1, i32 %20, i32 34, ptr nonnull %8, ptr nonnull %5, ptr nonnull %6, ptr nonnull %7, i32 1, i32 1)
  %21 = load i32, ptr %6, align 4
  %22 = call i32 @llvm.smin.i32(i32 %21, i32 %19)
  store i32 %22, ptr %6, align 4
  %23 = load i32, ptr %5, align 4
  %.not17 = icmp sgt i32 %23, %22
  br i1 %.not17, label %._crit_edge, label %.lr.ph.preheader

.lr.ph.preheader:                                 ; preds = %18
  %24 = sext i32 %23 to i64
  br label %.lr.ph

.lr.ph:                                           ; preds = %.lr.ph.preheader, %39
  %25 = phi i32 [ %22, %.lr.ph.preheader ], [ %40, %39 ]
  %indvars.iv = phi i64 [ %24, %.lr.ph.preheader ], [ %indvars.iv.next, %39 ]
  %26 = load ptr, ptr %2, align 8
  %27 = getelementptr inbounds %"struct.Octree<float>::PointSample", ptr %26, i64 %indvars.iv
  %28 = getelementptr inbounds i8, ptr %27, i64 32
  %29 = load float, ptr %28, align 8
  %30 = fcmp ogt float %29, 0.000000e+00
  br i1 %30, label %31, label %39

31:                                               ; preds = %.lr.ph
  %32 = load ptr, ptr %27, align 8
  %33 = getelementptr inbounds i8, ptr %32, i64 24
  %34 = load i32, ptr %33, align 8
  %35 = sext i32 %34 to i64
  %36 = load ptr, ptr %3, align 8
  %37 = getelementptr inbounds i32, ptr %36, i64 %35
  %38 = trunc i64 %indvars.iv to i32
  store i32 %38, ptr %37, align 4
  %.pre = load i32, ptr %6, align 4
  br label %39

39:                                               ; preds = %31, %.lr.ph
  %40 = phi i32 [ %.pre, %31 ], [ %25, %.lr.ph ]
  %indvars.iv.next = add nsw i64 %indvars.iv, 1
  %41 = sext i32 %40 to i64
  %.not.not = icmp slt i64 %indvars.iv, %41
  br i1 %.not.not, label %.lr.ph, label %._crit_edge

._crit_edge:                                      ; preds = %39, %18
  call void @__kmpc_for_static_fini(ptr nonnull @1, i32 %20)
  br label %42

42:                                               ; preds = %._crit_edge, %4
  ret void
}